; Function Attrs: nounwind uwtable
define void @dt_bauhaus_combobox_set_editable(ptr noundef %0, i32 noundef %1) local_unnamed_addr #0 {
  %3 = load atomic i64, ptr @dt_bh_get_type.static_g_define_type_id seq_cst, align 8
  %.not.i.i = icmp eq i64 %3, 0
  br i1 %.not.i.i, label %4, label %DT_BAUHAUS_WIDGET.exit

4:                                                ; preds = %2
  %5 = tail call i32 @g_once_init_enter(ptr noundef nonnull @dt_bh_get_type.static_g_define_type_id) #19
  %.not4.i.i = icmp eq i32 %5, 0
  br i1 %.not4.i.i, label %DT_BAUHAUS_WIDGET.exit, label %6

6:                                                ; preds = %4
  %7 = tail call fastcc i64 @dt_bh_get_type_once()
  tail call void @g_once_init_leave(ptr noundef nonnull @dt_bh_get_type.static_g_define_type_id, i64 noundef %7) #19
  br label %DT_BAUHAUS_WIDGET.exit

DT_BAUHAUS_WIDGET.exit:                           ; preds = %2, %4, %6
  %8 = load i64, ptr @dt_bh_get_type.static_g_define_type_id, align 8, !tbaa !6
  %9 = tail call ptr @g_type_check_instance_cast(ptr noundef %0, i64 noundef %8) #19
  %10 = getelementptr inbounds nuw i8, ptr %9, i64 40
  %11 = load i32, ptr %10, align 8, !tbaa !105
  %.not = icmp eq i32 %11, 2
  br i1 %.not, label %12, label %20

12:                                               ; preds = %DT_BAUHAUS_WIDGET.exit
  %.not7 = icmp ne i32 %1, 0
  %13 = zext i1 %.not7 to i32
  %14 = getelementptr inbounds nuw i8, ptr %9, i64 416
  store i32 %13, ptr %14, align 8, !tbaa !150
  br i1 %.not7, label %15, label %20

15:                                               ; preds = %12
  %16 = getelementptr inbounds nuw i8, ptr %9, i64 424
  %17 = load ptr, ptr %16, align 8, !tbaa !164
  %.not8 = icmp eq ptr %17, null
  br i1 %.not8, label %18, label %20

18:                                               ; preds = %15
  %19 = tail call noalias dereferenceable_or_null(180) ptr @calloc(i64 noundef 1, i64 noundef 180) #21
  store ptr %19, ptr %16, align 8, !tbaa !164
  br label %20

20:                                               ; preds = %12, %15, %18, %DT_BAUHAUS_WIDGET.exit
  ret void
}